(dp0
S'[estimator] win-1-estimator-0-3folds'
p1
I5207279489494759426
sS'[estimator] win-2-estimator-0-3folds'
p2
I-845562687091961753
sS'[estimator] win-0-estimator-0-3folds'
p3
I1198228328778870733
sS'[estimator] win-2-estimator-1-3folds'
p4
I-987259613781526732
sS'[estimator] win-1-estimator-1-3folds'
p5
I2090779741328939445
sS'[estimator] win-0-estimator-1-3folds'
p6
I-2446942065770698278
s.