(dp0
S'[estimator] layer-13-estimator-15-3folds'
p1
I-1477185252574398460
sS'[estimator] layer-12-estimator-13-3folds'
p2
I-1738714679817756665
sS'[estimator] layer-11-estimator-0-3folds'
p3
I-8062614041451204593
sS'[estimator] layer-18-estimator-13-3folds'
p4
I-443445471918503919
sS'[estimator] layer-24-estimator-1-3folds'
p5
I-7986044223939325932
sS'[estimator] layer-3-estimator-10-3folds'
p6
I4500151462311897111
sS'[estimator] layer-2-estimator-2-3folds'
p7
I9540296975548440
sS'[estimator] layer-27-estimator-9-3folds'
p8
I-4028365978579591135
sS'[estimator] layer-22-estimator-10-3folds'
p9
I5722984341391437863
sS'[estimator] layer-7-estimator-12-3folds'
p10
I-7555318121089357779
sS'[estimator] layer-8-estimator-11-3folds'
p11
I5272907078043977775
sS'[estimator] layer-19-estimator-7-3folds'
p12
I610731670304733242
sS'[estimator] layer-22-estimator-14-3folds'
p13
I4706214170593809251
sS'[estimator] layer-11-estimator-6-3folds'
p14
I-9067029350511085507
sS'[estimator] layer-13-estimator-7-3folds'
p15
I7947659847221205056
sS'[estimator] layer-20-estimator-14-3folds'
p16
I-5110013662388723639
sS'[estimator] layer-20-estimator-12-3folds'
p17
I-2857947531296090441
sS'[estimator] layer-19-estimator-9-3folds'
p18
I6364283511794661452
sS'[estimator] layer-4-estimator-15-3folds'
p19
I-2631668399847165873
sS'[estimator] layer-12-estimator-8-3folds'
p20
I7446449710893157390
sS'[estimator] layer-10-estimator-4-3folds'
p21
I-975004582943219624
sS'[estimator] layer-13-estimator-12-3folds'
p22
I2861308762010126425
sS'[estimator] layer-9-estimator-10-3folds'
p23
I-6576442593613834147
sS'[estimator] layer-15-estimator-9-3folds'
p24
I-723955970464034720
sS'[estimator] layer-16-estimator-4-3folds'
p25
I7686373856917463142
sS'[estimator] layer-10-estimator-15-3folds'
p26
I-1431545581871024025
sS'[estimator] layer-0-estimator-7-3folds'
p27
I4436415571769755753
sS'[estimator] layer-24-estimator-0-3folds'
p28
I-650334659524803225
sS'[estimator] layer-2-estimator-8-3folds'
p29
I-3368169392489705362
sS'[estimator] layer-12-estimator-7-3folds'
p30
I3949769090986188923
sS'[estimator] layer-9-estimator-1-3folds'
p31
I-1439381318839560064
sS'[estimator] layer-7-estimator-0-3folds'
p32
I3317975867775250561
sS'[estimator] layer-7-estimator-1-3folds'
p33
I7238243722746419330
sS'[estimator] layer-23-estimator-15-3folds'
p34
I-949596714262706043
sS'[estimator] layer-24-estimator-15-3folds'
p35
I4732275435176318650
sS'[estimator] layer-9-estimator-11-3folds'
p36
I-6704334148477970750
sS'[estimator] layer-6-estimator-6-3folds'
p37
I7414562784957534232
sS'[estimator] layer-14-estimator-9-3folds'
p38
I8940876391712473795
sS'[estimator] layer-20-estimator-2-3folds'
p39
I2533396322109397141
sS'[estimator] layer-3-estimator-2-3folds'
p40
I-690200810580026001
sS'[estimator] layer-14-estimator-4-3folds'
p41
I-4270694181218361188
sS'[estimator] layer-18-estimator-6-3folds'
p42
I-9042347849686909926
sS'[estimator] layer-14-estimator-2-3folds'
p43
I4477032187280404642
sS'[estimator] layer-9-estimator-15-3folds'
p44
I-7985220981343714618
sS'[estimator] layer-11-estimator-3-3folds'
p45
I1661570072972036262
sS'[estimator] layer-5-estimator-10-3folds'
p46
I2948400108260690089
sS'[estimator] layer-8-estimator-6-3folds'
p47
I4384092378422345906
sS'[estimator] layer-25-estimator-7-3folds'
p48
I-3680032826566780747
sS'[estimator] layer-23-estimator-10-3folds'
p49
I-2358851838317029194
sS'[estimator] layer-0-estimator-1-3folds'
p50
I3409334446909063351
sS'[estimator] layer-10-estimator-13-3folds'
p51
I-2458626706731716423
sS'[estimator] layer-26-estimator-15-3folds'
p52
I-5524765081998958404
sS'[estimator] layer-21-estimator-5-3folds'
p53
I549681863319918791
sS'[estimator] layer-22-estimator-8-3folds'
p54
I8188653585792846037
sS'[estimator] layer-27-estimator-8-3folds'
p55
I-8116875318161436458
sS'[estimator] layer-1-estimator-1-3folds'
p56
I-1128387360190574376
sS'[estimator] layer-16-estimator-7-3folds'
p57
I-8346920518466324785
sS'[estimator] layer-25-estimator-10-3folds'
p58
I-1046230471262009112
sS'[estimator] layer-9-estimator-7-3folds'
p59
I-6642006055032186646
sS'[estimator] layer-9-estimator-4-3folds'
p60
I5542520897895342323
sS'[estimator] layer-25-estimator-0-3folds'
p61
I-418304938524679948
sS'[estimator] layer-17-estimator-5-3folds'
p62
I-7530211857867362050
sS'[estimator] layer-18-estimator-15-3folds'
p63
I5573183250526413055
sS'[estimator] layer-6-estimator-4-3folds'
p64
I1537785404461674198
sS'[estimator] layer-18-estimator-3-3folds'
p65
I-7943198102346800887
sS'[estimator] layer-22-estimator-7-3folds'
p66
I6225324179132401932
sS'[estimator] layer-21-estimator-0-3folds'
p67
I50670663174060304
sS'[estimator] layer-20-estimator-15-3folds'
p68
I-1993769915438905058
sS'[estimator] layer-12-estimator-10-3folds'
p69
I6935419314647912738
sS'[estimator] layer-11-estimator-9-3folds'
p70
I8026503266637304100
sS'[estimator] layer-15-estimator-15-3folds'
p71
I-8532421790115577562
sS'[estimator] layer-20-estimator-4-3folds'
p72
I3245568988118733095
sS'[estimator] layer-17-estimator-13-3folds'
p73
I4903877127435641130
sS'[estimator] layer-27-estimator-15-3folds'
p74
I-4741159003161463631
sS'[estimator] layer-4-estimator-6-3folds'
p75
I8743866701641836846
sS'[estimator] layer-9-estimator-13-3folds'
p76
I-5733154850251081416
sS'[estimator] layer-15-estimator-0-3folds'
p77
I-6179948075085086405
sS'[estimator] layer-25-estimator-15-3folds'
p78
I-1545241671407867585
sS'[estimator] layer-26-estimator-5-3folds'
p79
I-9039987993816692414
sS'[estimator] layer-16-estimator-15-3folds'
p80
I-8953123295694812851
sS'[estimator] layer-3-estimator-9-3folds'
p81
I2830618784365205838
sS'[estimator] layer-21-estimator-1-3folds'
p82
I8139678957098209619
sS'[estimator] layer-19-estimator-1-3folds'
p83
I-2800150029993512620
sS'[estimator] layer-3-estimator-12-3folds'
p84
I-4012817994706962087
sS'[estimator] layer-27-estimator-4-3folds'
p85
I-750472801679271878
sS'[estimator] layer-3-estimator-7-3folds'
p86
I4169096626046177636
sS'[estimator] layer-19-estimator-10-3folds'
p87
I-1485585199585166991
sS'[estimator] layer-17-estimator-2-3folds'
p88
I266058896261155219
sS'[estimator] layer-13-estimator-2-3folds'
p89
I-3848198117329573513
sS'[estimator] layer-25-estimator-14-3folds'
p90
I6543766622516281724
sS'[estimator] layer-17-estimator-10-3folds'
p91
I-5584554514434709809
sS'[estimator] layer-0-estimator-9-3folds'
p92
I4442526373257163135
sS'[estimator] layer-19-estimator-11-3folds'
p93
I7541221274493960582
sS'[estimator] layer-0-estimator-8-3folds'
p94
I-4977411226373260920
sS'[estimator] layer-26-estimator-12-3folds'
p95
I5125452236302074257
sS'[estimator] layer-18-estimator-5-3folds'
p96
I-9173733822297411181
sS'[estimator] layer-14-estimator-0-3folds'
p97
I7700580512065012120
sS'[estimator] layer-8-estimator-1-3folds'
p98
I-3412434376986173025
sS'[estimator] layer-27-estimator-6-3folds'
p99
I2675343862291146480
sS'[estimator] layer-15-estimator-5-3folds'
p100
I4688574850810280380
sS'[estimator] layer-21-estimator-6-3folds'
p101
I-1908960823588025922
sS'[estimator] layer-1-estimator-13-3folds'
p102
I-5622015677453645376
sS'[estimator] layer-25-estimator-3-3folds'
p103
I-9017916895307355703
sS'[estimator] layer-10-estimator-1-3folds'
p104
I-7122731276414635569
sS'[estimator] layer-22-estimator-15-3folds'
p105
I-7225531496820463152
sS'[estimator] layer-22-estimator-4-3folds'
p106
I-6863374076988679711
sS'[estimator] layer-5-estimator-1-3folds'
p107
I-485965729135093276
sS'[estimator] layer-9-estimator-6-3folds'
p108
I-3528799942144687639
sS'[estimator] layer-6-estimator-3-3folds'
p109
I2680951654224136683
sS'[estimator] layer-24-estimator-7-3folds'
p110
I-517909286422246918
sS'[estimator] layer-12-estimator-2-3folds'
p111
I-3628196055291993604
sS'[estimator] layer-11-estimator-15-3folds'
p112
I-8980338177332080126
sS'[estimator] layer-17-estimator-12-3folds'
p113
I-3785269713474758139
sS'[estimator] layer-27-estimator-10-3folds'
p114
I5566790304999409338
sS'[estimator] layer-6-estimator-11-3folds'
p115
I8457439281319229965
sS'[estimator] layer-21-estimator-15-3folds'
p116
I-6900521980038890989
sS'[estimator] layer-19-estimator-6-3folds'
p117
I6075499893433389589
sS'[estimator] layer-26-estimator-8-3folds'
p118
I7115983489053646937
sS'[estimator] layer-23-estimator-0-3folds'
p119
I-7208501031707976614
sS'[estimator] layer-20-estimator-6-3folds'
p120
I3504622514329369129
sS'[estimator] layer-18-estimator-1-3folds'
p121
I-8202507630093439225
sS'[estimator] layer-18-estimator-8-3folds'
p122
I453858524998586924
sS'[estimator] layer-21-estimator-13-3folds'
p123
I1847204388459874861
sS'[estimator] layer-15-estimator-2-3folds'
p124
I8227604107188664413
sS'[estimator] layer-20-estimator-9-3folds'
p125
I6923681754767102728
sS'[estimator] layer-9-estimator-0-3folds'
p126
I-4555881067005380041
sS'[estimator] layer-22-estimator-12-3folds'
p127
I-1400069865976366531
sS'[estimator] layer-23-estimator-7-3folds'
p128
I-8620773837136221625
sS'[estimator] layer-2-estimator-3-3folds'
p129
I-8482923121223887089
sS'[estimator] layer-9-estimator-14-3folds'
p130
I-4868977234393896047
sS'[estimator] layer-8-estimator-7-3folds'
p131
I2604194345458743921
sS'[estimator] layer-2-estimator-13-3folds'
p132
I-610725055291946377
sS'[estimator] layer-3-estimator-3-3folds'
p133
I-5929305338918544776
sS'[estimator] layer-26-estimator-14-3folds'
p134
I-7304663114962560385
sS'[estimator] layer-2-estimator-6-3folds'
p135
I-4596147278829712764
sS'[estimator] layer-23-estimator-2-3folds'
p136
I-9119785037282080112
sS'[estimator] layer-11-estimator-4-3folds'
p137
I-2775980435845571941
sS'[estimator] layer-23-estimator-11-3folds'
p138
I628395666791776929
sS'[estimator] layer-10-estimator-11-3folds'
p139
I-2448315752668652893
sS'[estimator] layer-13-estimator-4-3folds'
p140
I-10652584617995611
sS'[estimator] layer-19-estimator-0-3folds'
p141
I6787672559442725543
sS'[estimator] layer-1-estimator-8-3folds'
p142
I-118501602217105977
sS'[estimator] layer-0-estimator-3-3folds'
p143
I3419645400972126893
sS'[estimator] layer-27-estimator-12-3folds'
p144
I5307480777524771932
sS'[estimator] layer-15-estimator-13-3folds'
p145
I8684042565179366076
sS'[estimator] layer-22-estimator-13-3folds'
p146
I-2455435602271491390
sS'[estimator] layer-4-estimator-1-3folds'
p147
I2274459167661296323
sS'[estimator] layer-15-estimator-7-3folds'
p148
I6818825719458783942
sS'[estimator] layer-16-estimator-8-3folds'
p149
I-7136366231969490230
sS'[estimator] layer-7-estimator-2-3folds'
p150
I7369629695292920523
sS'[estimator] layer-7-estimator-15-3folds'
p151
I-1884209856141909300
sS'[estimator] layer-16-estimator-14-3folds'
p152
I-8825231740830676270
sS'[estimator] layer-23-estimator-3-3folds'
p153
I-1030776743357930797
sS'[estimator] layer-21-estimator-2-3folds'
p154
I1961954668748163802
sS'[estimator] layer-26-estimator-4-3folds'
p155
I-8912096438952555811
sS'[estimator] layer-25-estimator-12-3folds'
p156
I-786920943515370778
sS'[estimator] layer-7-estimator-6-3folds'
p157
I2638255813850854127
sS'[estimator] layer-14-estimator-7-3folds'
p158
I3227913459657677553
sS'[estimator] layer-5-estimator-5-3folds'
p159
I7862376379609735928
sS'[estimator] layer-19-estimator-3-3folds'
p160
I-1980080388169765346
sS'[estimator] layer-9-estimator-8-3folds'
p161
I-3522689140657280257
sS'[estimator] layer-3-estimator-4-3folds'
p162
I-10480756655629567
sS'[estimator] layer-3-estimator-5-3folds'
p163
I3909787098315539202
sS'[estimator] layer-9-estimator-9-3folds'
p164
I5504117333421847304
sS'[estimator] layer-7-estimator-10-3folds'
p165
I-895914154988975349
sS'[estimator] layer-14-estimator-5-3folds'
p166
I5609595052740424463
sS'[estimator] layer-11-estimator-13-3folds'
p167
I-1612800258876046576
sS'[estimator] layer-21-estimator-11-3folds'
p168
I5070752713244482327
sS'[estimator] layer-5-estimator-11-3folds'
p169
I-6078406365562436834
sS'[estimator] layer-0-estimator-15-3folds'
p170
I-7203255065953742045
sS'[estimator] layer-23-estimator-8-3folds'
p171
I-6070947720150373582
sS'[estimator] layer-18-estimator-0-3folds'
p172
I2908782880737592116
sS'[estimator] layer-17-estimator-7-3folds'
p173
I-6098168474413393100
sS'[estimator] layer-14-estimator-3-3folds'
p174
I4605179743680543549
sS'[estimator] layer-23-estimator-4-3folds'
p175
I7367327549665385278
sS'[estimator] layer-14-estimator-14-3folds'
p176
I7701179901427805000
sS'[estimator] layer-23-estimator-9-3folds'
p177
I-7126313456445498419
sS'[estimator] layer-17-estimator-3-3folds'
p178
I-1513839136702446768
sS'[estimator] layer-25-estimator-13-3folds'
p179
I-3504617156633951407
sS'[estimator] layer-18-estimator-11-3folds'
p180
I-1263515113742251173
sS'[estimator] layer-16-estimator-6-3folds'
p181
I219278319748438876
sS'[estimator] layer-1-estimator-6-3folds'
p182
I-7661283292139924639
sS'[estimator] layer-15-estimator-8-3folds'
p183
I944198859485418339
sS'[estimator] layer-10-estimator-2-3folds'
p184
I8910563098969152358
sS'[estimator] layer-6-estimator-8-3folds'
p185
I-4574581253148869766
sS'[estimator] layer-5-estimator-2-3folds'
p186
I-4665543111836900479
sS'[estimator] layer-5-estimator-3-3folds'
p187
I-745275256865731710
sS'[estimator] layer-2-estimator-7-3folds'
p188
I-4724070833757849109
sS'[estimator] layer-13-estimator-5-3folds'
p189
I-8699799425528394870
sS'[estimator] layer-15-estimator-6-3folds'
p190
I-8511674607300949103
sS'[estimator] layer-25-estimator-11-3folds'
p191
I-8381940035676531813
sS'[estimator] layer-14-estimator-11-3folds'
p192
I7202168701281946527
sS'[estimator] layer-8-estimator-8-3folds'
p193
I-4099515495411993696
sS'[estimator] layer-2-estimator-15-3folds'
p194
I3226820477419631525
sS'[estimator] layer-14-estimator-6-3folds'
p195
I-3112964906545886298
sS'[estimator] layer-19-estimator-2-3folds'
p196
I7046726085653361577
sS'[estimator] layer-23-estimator-13-3folds'
p197
I1791332494323962795
sS'[estimator] layer-12-estimator-14-3folds'
p198
I3575082561205113774
sS'[estimator] layer-13-estimator-11-3folds'
p199
I1797404427802231728
sS'[estimator] layer-20-estimator-0-3folds'
p200
I2274342795914761139
sS'[estimator] layer-21-estimator-3-3folds'
p201
I8398988484572847029
sS'[estimator] layer-7-estimator-5-3folds'
p202
I3659751716229477302
sS'[estimator] layer-26-estimator-7-3folds'
p203
I-8068808695589803080
sS'[estimator] layer-13-estimator-0-3folds'
p204
I8337689524126833593
sS'[estimator] layer-19-estimator-12-3folds'
p205
I-53541816131198021
sS'[estimator] layer-24-estimator-13-3folds'
p206
I-3117031186076609592
sS'[estimator] layer-17-estimator-11-3folds'
p207
I4644567599705002956
sS'[estimator] layer-6-estimator-0-3folds'
p208
I2549565681421634722
sS'[estimator] layer-12-estimator-1-3folds'
p209
I7927152819730873297
sS'[estimator] layer-24-estimator-6-3folds'
p210
I7198971961984125909
sS'[estimator] layer-14-estimator-10-3folds'
p211
I-3155567078503455780
sS'[estimator] layer-3-estimator-15-3folds'
p212
I7901030147053239264
sS'[estimator] layer-18-estimator-4-3folds'
p213
I7493112218448538448
sS'[estimator] layer-21-estimator-4-3folds'
p214
I-6786027701094603788
sS'[estimator] layer-11-estimator-8-3folds'
p215
I-8309568707460094985
sS'[estimator] layer-16-estimator-1-3folds'
p216
I-3042481568357661699
sS'[estimator] layer-24-estimator-8-3folds'
p217
I5441274699378412543
sS'[estimator] layer-6-estimator-15-3folds'
p218
I2530646799599451137
sS'[estimator] layer-12-estimator-4-3folds'
p219
I3839682880881083394
sS'[estimator] layer-12-estimator-12-3folds'
p220
I-4851920792961256444
sS'[estimator] layer-12-estimator-0-3folds'
p221
I-1498201187923491834
sS'[estimator] layer-13-estimator-14-3folds'
p222
I1636020860569101319
sS'[estimator] layer-24-estimator-9-3folds'
p223
I5235642555323681804
sS'[estimator] layer-11-estimator-11-3folds'
p224
I3539613414657692686
sS'[estimator] layer-17-estimator-1-3folds'
p225
I397444868871656474
sS'[estimator] layer-27-estimator-13-3folds'
p226
I-2781527516399377377
sS'[estimator] layer-1-estimator-10-3folds'
p227
I4866415964416705573
sS'[estimator] layer-24-estimator-10-3folds'
p228
I-5575673872984554319
sS'[estimator] layer-9-estimator-2-3folds'
p229
I-4545570112942316499
sS'[estimator] layer-16-estimator-13-3folds'
p230
I6082483076500491315
sS'[estimator] layer-8-estimator-14-3folds'
p231
I-225321157709673416
sS'[estimator] layer-8-estimator-15-3folds'
p232
I2970582990363374651
sS'[estimator] layer-26-estimator-3-3folds'
p233
I5995618378378611772
sS'[estimator] layer-19-estimator-8-3folds'
p234
I-7819575180385326017
sS'[estimator] layer-1-estimator-2-3folds'
p235
I-62934671048387515
sS'[estimator] layer-20-estimator-10-3folds'
p236
I-3829126829522979763
sS'[estimator] layer-5-estimator-8-3folds'
p237
I-5209119461553801373
sS'[estimator] layer-8-estimator-9-3folds'
p238
I-8188024834993839017
sS'[estimator] layer-12-estimator-15-3folds'
p239
I-513426778376731559
sS'[estimator] layer-7-estimator-9-3folds'
p240
I9193595989380002906
sS'[estimator] layer-16-estimator-3-3folds'
p241
I-5312399937882407845
sS'[estimator] layer-4-estimator-0-3folds'
p242
I2402350722525432924
sS'[estimator] layer-25-estimator-4-3folds'
p243
I6418393425743984144
sS'[estimator] layer-16-estimator-0-3folds'
p244
I6715147664505490530
sS'[estimator] layer-6-estimator-13-3folds'
p245
I-2671977936593175445
sS'[estimator] layer-22-estimator-0-3folds'
p246
I2806328939206669421
sS'[estimator] layer-6-estimator-10-3folds'
p247
I-8934195057375198094
sS'[estimator] layer-12-estimator-6-3folds'
p248
I7062975204129688696
sS'[estimator] layer-11-estimator-14-3folds'
p249
I-7925228442316956547
sS'[estimator] layer-15-estimator-12-3folds'
p250
I6904144532215764095
sS'[estimator] layer-21-estimator-14-3folds'
p251
I2979767253919894656
sS'[estimator] layer-2-estimator-14-3folds'
p252
I-5462326363490767734
sS'[estimator] layer-17-estimator-8-3folds'
p253
I479888445670136973
sS'[estimator] layer-7-estimator-13-3folds'
p254
I-1163107716273711982
sS'[estimator] layer-19-estimator-14-3folds'
p255
I6442071527153851541
sS'[estimator] layer-20-estimator-7-3folds'
p256
I-5522183959493757794
sS'[estimator] layer-2-estimator-4-3folds'
p257
I-4855456806560351070
sS'[estimator] layer-18-estimator-10-3folds'
p258
I8324307475693986984
sS'[estimator] layer-27-estimator-11-3folds'
p259
I-870243510825273899
sS'[estimator] layer-21-estimator-9-3folds'
p260
I-5028277738218933077
sS'[estimator] layer-16-estimator-5-3folds'
p261
I5465772935346760881
sS'[estimator] layer-21-estimator-12-3folds'
p262
I1975351944860013746
sS'[estimator] layer-16-estimator-10-3folds'
p263
I-7117766381610738146
sS'[estimator] layer-2-estimator-11-3folds'
p264
I-6871581487545090887
sS'[estimator] layer-8-estimator-10-3folds'
p265
I-4607638157450810180
sS'[estimator] layer-3-estimator-11-3folds'
p266
I-2947365305564775228
sS'[estimator] layer-21-estimator-7-3folds'
p267
I3061104415832272073
sS'[estimator] layer-22-estimator-1-3folds'
p268
I9198283342230312146
sS'[estimator] layer-8-estimator-3-3folds'
p269
I-4232504018809920299
sS'[estimator] layer-26-estimator-10-3folds'
p270
I4305382594478327003
sS'[estimator] layer-4-estimator-14-3folds'
p271
I5934530438367597788
sS'[estimator] layer-7-estimator-4-3folds'
p272
I3801448642919042277
sS'[estimator] layer-17-estimator-0-3folds'
p273
I2777481449013509365
sS'[estimator] layer-2-estimator-9-3folds'
p274
I-1110824813699486467
sS'[estimator] layer-0-estimator-10-3folds'
p275
I-1272805273019654908
sS'[estimator] layer-1-estimator-11-3folds'
p276
I-3822730876493693686
sS'[estimator] layer-0-estimator-4-3folds'
p277
I-5994117396914889460
sS'[estimator] layer-12-estimator-9-3folds'
p278
I-2507830944616958695
sS'[estimator] layer-22-estimator-11-3folds'
p279
I8918888489208485156
sS'[estimator] layer-25-estimator-1-3folds'
p280
I6917404625889842631
sS'[estimator] layer-17-estimator-14-3folds'
p281
I-1044340504888089301
sS'[estimator] layer-15-estimator-4-3folds'
p282
I-3877623987404483281
sS'[estimator] layer-19-estimator-4-3folds'
p283
I5816446367238753587
sS'[estimator] layer-23-estimator-1-3folds'
p284
I-771467215883293387
sS'[estimator] layer-4-estimator-3-3folds'
p285
I3245638465888185657
sS'[estimator] layer-4-estimator-2-3folds'
p286
I6441542613961233722
sS'[estimator] layer-13-estimator-6-3folds'
p287
I-269962112348633789
sS'[estimator] layer-1-estimator-5-3folds'
p288
I-3481961911230120636
sS'[estimator] layer-26-estimator-1-3folds'
p289
I8125869247027115334
sS'[estimator] layer-16-estimator-11-3folds'
p290
I8212733945148994889
sS'[estimator] layer-3-estimator-6-3folds'
p291
I4041173070862040395
sS'[estimator] layer-14-estimator-13-3folds'
p292
I9113452706856050005
sS'[estimator] layer-0-estimator-11-3folds'
p293
I-8215035342913702569
sS'[estimator] layer-16-estimator-2-3folds'
p294
I-2199193824994908840
sS'[estimator] layer-7-estimator-8-3folds'
p295
I-6139941971442049703
sS'[estimator] layer-15-estimator-14-3folds'
p296
I887515809770847121
sS'[estimator] layer-6-estimator-12-3folds'
p297
I441228176294323560
sS'[estimator] layer-12-estimator-3-3folds'
p298
I-5885540634082212497
sS'[estimator] layer-20-estimator-1-3folds'
p299
I494444762951159152
sS'[estimator] layer-13-estimator-8-3folds'
p300
I-5982925044403430031
sS'[estimator] layer-23-estimator-6-3folds'
p301
I2490260672158807412
sS'[estimator] layer-19-estimator-15-3folds'
p302
I8822108107295704442
sS'[estimator] layer-4-estimator-13-3folds'
p303
I2672770550261497213
sS'[estimator] layer-0-estimator-12-3folds'
p304
I7616022693092273550
sS'[estimator] layer-8-estimator-4-3folds'
p305
I4643145904616981908
sS'[estimator] layer-22-estimator-5-3folds'
p306
I-6894886180631693930
sS'[estimator] layer-14-estimator-1-3folds'
p307
I-7550515415363494501
sS'[estimator] layer-11-estimator-1-3folds'
p308
I503840798299561372
sS'[estimator] layer-12-estimator-11-3folds'
p309
I-5119114354245993059
sS'[estimator] layer-18-estimator-9-3folds'
p310
I-1592366354432395873
sS'[estimator] layer-11-estimator-7-3folds'
p311
I-9195176906911224414
sS'[estimator] layer-18-estimator-12-3folds'
p312
I8583361001904623014
sS'[estimator] layer-13-estimator-1-3folds'
p313
I-7121807044473911890
sS'[estimator] layer-24-estimator-5-3folds'
p314
I-1149345859670661712
sS'[estimator] layer-15-estimator-10-3folds'
p315
I3478327868245345717
sS'[estimator] layer-6-estimator-14-3folds'
p316
I-585852948566368842
sS'[estimator] layer-11-estimator-10-3folds'
p317
I423113666491872697
sS'[estimator] layer-4-estimator-7-3folds'
p318
I-1136678533852951107
sS'[estimator] layer-18-estimator-7-3folds'
p319
I-6662311269545057035
sS'[estimator] layer-14-estimator-8-3folds'
p320
I-1288245722427238976
sS'[estimator] layer-8-estimator-12-3folds'
p321
I-2477387288802306618
sS'[estimator] layer-2-estimator-5-3folds'
p322
I-8775724661275519071
sS'[estimator] layer-27-estimator-5-3folds'
p323
I4714295421449384469
sS'[estimator] layer-5-estimator-0-3folds'
p324
I-613889284319230517
sS'[estimator] layer-20-estimator-11-3folds'
p325
I-3701235274658843182
sS'[estimator] layer-24-estimator-14-3folds'
p326
I-1704758380648364587
sS'[estimator] layer-4-estimator-11-3folds'
p327
I402852180736751067
sS'[estimator] layer-3-estimator-8-3folds'
p328
I-7049926451129582115
sS'[estimator] layer-4-estimator-12-3folds'
p329
I-6016344290584902174
sS'[estimator] layer-5-estimator-4-3folds'
p330
I-5345263165761296913
sS'[estimator] layer-24-estimator-4-3folds'
p331
I6939662434253487603
sS'[estimator] layer-18-estimator-2-3folds'
p332
I1476739497283623166
sS'[estimator] layer-27-estimator-1-3folds'
p333
I5685521613669356457
sS'[estimator] layer-27-estimator-0-3folds'
p334
I-3341284860153770466
sS'[estimator] layer-22-estimator-6-3folds'
p335
I6430956323187132671
sS'[estimator] layer-10-estimator-10-3folds'
p336
I-4494540632099635696
sS'[estimator] layer-26-estimator-0-3folds'
p337
I-7204631079732617711
sS'[estimator] layer-0-estimator-2-3folds'
p338
I1373420521541144094
sS'[estimator] layer-0-estimator-14-3folds'
p339
I7323221153040641568
sS'[estimator] layer-8-estimator-2-3folds'
p340
I5355318570626317862
sS'[estimator] layer-26-estimator-11-3folds'
p341
I-4553538889794986456
sS'[estimator] layer-3-estimator-1-3folds'
p342
I331295091798597174
sS'[estimator] layer-17-estimator-4-3folds'
p343
I1496594616211765513
sS'[estimator] layer-14-estimator-12-3folds'
p344
I-2896257551028818374
sS'[estimator] layer-4-estimator-8-3folds'
p345
I-2369887974217462204
sS'[estimator] layer-23-estimator-5-3folds'
p346
I-6109351284623868343
sS'[estimator] layer-22-estimator-2-3folds'
p347
I-8981267169938502069
sS'[estimator] layer-26-estimator-9-3folds'
p348
I-7685590190106335666
sS'[estimator] layer-25-estimator-5-3folds'
p349
I-3939342354041418157
sS'[estimator] layer-5-estimator-13-3folds'
p350
I-6898476007386184108
sS'[estimator] layer-10-estimator-0-3folds'
p351
I1443467561800128092
sS'[estimator] layer-25-estimator-9-3folds'
p352
I3641769112031594079
sS'[estimator] layer-1-estimator-7-3folds'
p353
I-5993128462190471582
sS'[estimator] layer-8-estimator-5-3folds'
p354
I-821622318511674437
sS'[estimator] layer-23-estimator-12-3folds'
p355
I3902004593936115320
sS'[estimator] layer-14-estimator-15-3folds'
p356
I365470337013282427
sS'[estimator] layer-2-estimator-1-3folds'
p357
I1074992986373736069
sS'[estimator] layer-9-estimator-5-3folds'
p358
I4487411162880218764
sS'[estimator] layer-26-estimator-6-3folds'
p359
I-4872904547516755013
sS'[estimator] layer-1-estimator-9-3folds'
p360
I2997742144732712592
sS'[estimator] layer-8-estimator-13-3folds'
p361
I638856458147511953
sS'[estimator] layer-11-estimator-5-3folds'
p362
I-5971628582126616936
sS'[estimator] layer-0-estimator-13-3folds'
p363
I-2338257962417842535
sS'[estimator] layer-13-estimator-3-3folds'
p364
I-5958870216941726044
sS'[estimator] layer-27-estimator-14-3folds'
p365
I228906236258834374
sS'[estimator] layer-1-estimator-4-3folds'
p366
I-5861998491179972949
sS'[estimator] layer-2-estimator-10-3folds'
p367
I-3884333982436284754
sS'[estimator] layer-20-estimator-13-3folds'
p368
I337956616776957620
sS'[estimator] layer-5-estimator-7-3folds'
p369
I-4323767263382673738
sS'[estimator] layer-10-estimator-9-3folds'
p370
I8824689104728307383
sS'[estimator] layer-20-estimator-3-3folds'
p371
I-2931371901019259206
sS'[estimator] layer-25-estimator-2-3folds'
p372
I4458761938981897918
sS'[estimator] layer-7-estimator-14-3folds'
p373
I2378675525387654847
sS'[estimator] layer-15-estimator-3-3folds'
p374
I8099712552324527810
sS'[estimator] layer-1-estimator-12-3folds'
p375
I4607106436686067395
sS'[estimator] layer-4-estimator-5-3folds'
p376
I993572334795552455
sS'[estimator] layer-1-estimator-0-3folds'
p377
I2516783034358994639
sS'[estimator] layer-2-estimator-0-3folds'
p378
I-5867237083520311594
sS'[estimator] layer-4-estimator-10-3folds'
p379
I3516058293624250072
sS'[estimator] layer-3-estimator-14-3folds'
p380
I-8877559096706859293
sS'[estimator] layer-7-estimator-3-3folds'
p381
I7497553250477057764
sS'[estimator] layer-16-estimator-9-3folds'
p382
I-7008442676785352987
sS'[estimator] layer-13-estimator-9-3folds'
p383
I6122940663102557734
sS'[estimator] layer-19-estimator-5-3folds'
p384
I4036548334275151600
sS'[estimator] layer-17-estimator-9-3folds'
p385
I1534998180685260530
sS'[estimator] layer-22-estimator-9-3folds'
p386
I471772337386473210
sS'[estimator] layer-24-estimator-12-3folds'
p387
I7994003323218419451
sS'[estimator] layer-5-estimator-9-3folds'
p388
I3479995379292598012
sS'[estimator] layer-10-estimator-7-3folds'
p389
I-1818292326305972483
sS'[estimator] layer-0-estimator-0-3folds'
p390
I6525834195074883328
sS'[estimator] layer-17-estimator-6-3folds'
p391
I1237285088465127175
sS'[estimator] layer-7-estimator-11-3folds'
p392
I2217291958154524424
sS'[estimator] layer-20-estimator-8-3folds'
p393
I3810475641623602955
sS'[estimator] layer-10-estimator-12-3folds'
p394
I657873041434103566
sS'[estimator] layer-6-estimator-7-3folds'
p395
I-1077900633241901297
sS'[estimator] layer-21-estimator-10-3folds'
p396
I8266400859525527316
sS'[estimator] layer-5-estimator-14-3folds'
p397
I1977173916040718101
sS'[estimator] layer-6-estimator-2-3folds'
p398
I2808875209152273028
sS'[estimator] layer-6-estimator-5-3folds'
p399
I8480015474355721861
sS'[estimator] layer-26-estimator-13-3folds'
p400
I-4294485363584350426
sS'[estimator] layer-8-estimator-0-3folds'
p401
I5614372096836953896
sS'[estimator] layer-1-estimator-15-3folds'
p402
I-2244738495439210706
sS'[estimator] layer-27-estimator-7-3folds'
p403
I4455241895254748467
sS'[estimator] layer-18-estimator-14-3folds'
p404
I7353081283490015036
sS'[estimator] layer-22-estimator-3-3folds'
p405
I6269828757234003784
sS'[estimator] layer-3-estimator-13-3folds'
p406
I-367647600157393074
sS'[estimator] layer-15-estimator-1-3folds'
p407
I9070891850551417144
sS'[estimator] layer-1-estimator-14-3folds'
p408
I-5231986000548016839
sS'[estimator] layer-10-estimator-5-3folds'
p409
I-4088210695830718629
sS'[estimator] layer-5-estimator-15-3folds'
p410
I-3487594307087938246
sS'[estimator] layer-10-estimator-6-3folds'
p411
I7939336906557179746
sS'[estimator] layer-9-estimator-12-3folds'
p412
I-2537250702178033349
sS'[estimator] layer-10-estimator-14-3folds'
p413
I-4544751694758523036
sS'[estimator] layer-3-estimator-0-3folds'
p414
I472992018488162149
sS'[estimator] layer-24-estimator-2-3folds'
p415
I-391025131778164887
sS'[estimator] layer-0-estimator-6-3folds'
p416
I1323209458882256746
sS'[estimator] layer-0-estimator-5-3folds'
p417
I-4939007661899765901
sS'[estimator] layer-6-estimator-9-3folds'
p418
I-1461375140005369991
sS'[estimator] layer-19-estimator-13-3folds'
p419
I7281911746747322248
sS'[estimator] layer-4-estimator-4-3folds'
p420
I4109816081745371024
sS'[estimator] layer-1-estimator-3-3folds'
p421
I7384582096828284822
sS'[estimator] layer-15-estimator-11-3folds'
p422
I8943096091374002074
sS'[estimator] layer-12-estimator-5-3folds'
p423
I6219687460510934941
sS'[estimator] layer-9-estimator-3-3folds'
p424
I-6591794992373299298
sS'[estimator] layer-16-estimator-12-3folds'
p425
I-2483715761714272352
sS'[estimator] layer-6-estimator-1-3folds'
p426
I-1370702173293533279
sS'[estimator] layer-11-estimator-12-3folds'
p427
I433424620554936227
sS'[estimator] layer-2-estimator-12-3folds'
p428
I-2721397154904098908
sS'[estimator] layer-5-estimator-12-3folds'
p429
I2689346582050054055
sS'[estimator] layer-21-estimator-8-3folds'
p430
I-8224181886035980376
sS'[estimator] layer-23-estimator-14-3folds'
p431
I7739550126647693226
sS'[estimator] layer-4-estimator-9-3folds'
p432
I-4749924554167314517
sS'[estimator] layer-13-estimator-13-3folds'
p433
I6949818101591971758
sS'[estimator] layer-26-estimator-2-3folds'
p434
I-2570580459836151889
sS'[estimator] layer-10-estimator-3-3folds'
p435
I6689962177398450097
sS'[estimator] layer-13-estimator-10-3folds'
p436
I-2465480953727332413
sS'[estimator] layer-24-estimator-11-3folds'
p437
I-605608633564256314
sS'[estimator] layer-7-estimator-7-3folds'
p438
I-2600848714487664648
sS'[estimator] layer-20-estimator-5-3folds'
p439
I-6342253601317505068
sS'[estimator] layer-25-estimator-6-3folds'
p440
I8329677431318087642
sS'[estimator] layer-24-estimator-3-3folds'
p441
I-3108721344896745506
sS'[estimator] layer-10-estimator-8-3folds'
p442
I8966386031417872356
sS'[estimator] layer-5-estimator-6-3folds'
p443
I-4182070336693108763
sS'[estimator] layer-27-estimator-3-3folds'
p444
I5426468087458720423
sS'[estimator] layer-25-estimator-8-3folds'
p445
I-2873229294263685140
sS'[estimator] layer-11-estimator-2-3folds'
p446
I8002448439175600113
sS'[estimator] layer-17-estimator-15-3folds'
p447
I1066331594724063224
sS'[estimator] layer-27-estimator-2-3folds'
p448
I-4161354501977517740
s.